target datalayout = "e-m:e-p270:32:32-p271:32:32-p272:64:64-i64:64-i128:128-f80:128-n8:16:32:64-S128"
target triple = "x86_64-pc-linux-gnu"

%struct.hb_segment_properties_t = type { i32, i32, ptr, ptr, ptr }
%struct.hb_ot_shape_plan_t = type <{ %struct.hb_segment_properties_t, ptr, %struct.hb_ot_map_t, ptr, i32, i32, i32, i32, i32, i32, i16, [6 x i8] }>
%struct.hb_ot_map_t = type { [2 x i32], [2 x i8], i32, %struct.hb_vector_t.1, [2 x %struct.hb_vector_t.2], [2 x %struct.hb_vector_t.3] }
%struct.hb_vector_t.1 = type { i32, i32, ptr }
%struct.hb_vector_t.2 = type { i32, i32, ptr }
%struct.hb_vector_t.3 = type { i32, i32, ptr }
%struct.hb_shape_plan_key_t = type { %struct.hb_segment_properties_t, ptr, i32, %struct.hb_ot_shape_plan_key_t, ptr, ptr }
%struct.hb_ot_shape_plan_key_t = type { [2 x i32] }
%struct.hb_shape_plan_t = type { %struct.hb_object_header_t, ptr, %struct.hb_shape_plan_key_t, %struct.hb_ot_shape_plan_t }
%struct.hb_object_header_t = type { %struct.hb_reference_count_t, %struct.hb_atomic_int_t, %struct.hb_atomic_ptr_t }
%struct.hb_reference_count_t = type { %struct.hb_atomic_int_t }
%struct.hb_atomic_int_t = type { i32 }
%struct.hb_atomic_ptr_t = type { ptr }
%struct.hb_font_t = type { %struct.hb_object_header_t, i32, i32, ptr, ptr, i32, i32, float, float, i8, i32, i32, float, float, float, float, i64, i64, i32, i32, float, i32, i32, ptr, ptr, ptr, ptr, ptr, %struct.hb_shaper_object_dataset_t }
%struct.hb_shaper_object_dataset_t = type { ptr, %struct.hb_shaper_lazy_loader_t, %struct.hb_shaper_lazy_loader_t.5 }
%struct.hb_shaper_lazy_loader_t = type { %struct.hb_lazy_loader_t }
%struct.hb_lazy_loader_t = type { %struct.hb_atomic_ptr_t.4 }
%struct.hb_atomic_ptr_t.4 = type { ptr }
%struct.hb_shaper_lazy_loader_t.5 = type { %struct.hb_lazy_loader_t.6 }
%struct.hb_lazy_loader_t.6 = type { %struct.hb_atomic_ptr_t.8 }
%struct.hb_atomic_ptr_t.8 = type { ptr }
%struct.hb_buffer_t = type <{ %struct.hb_object_header_t, ptr, i32, i32, i32, i32, i32, i32, %struct.hb_segment_properties_t, i8, i8, i8, i8, i32, i32, i32, i32, [4 x i8], ptr, ptr, ptr, [2 x [5 x i32]], [2 x i32], i8, i8, [2 x i8], i32, i32, i32, ptr, ptr, ptr, i32, [4 x i8] }>
%struct.hb_glyph_info_t = type { i32, i32, i32, %union._hb_var_int_t, %union._hb_var_int_t }
%union._hb_var_int_t = type { i32 }
%struct.hb_unicode_funcs_t = type { %struct.hb_object_header_t, ptr, %struct.anon, %struct.anon.14, %struct.anon.15 }
%struct.anon = type { ptr, ptr, ptr, ptr, ptr, ptr, ptr, ptr }
%struct.anon.14 = type { ptr, ptr, ptr, ptr, ptr, ptr, ptr, ptr }
%struct.anon.15 = type { ptr, ptr, ptr, ptr, ptr, ptr, ptr, ptr }
%struct.hb_font_funcs_t = type { %struct.hb_object_header_t, ptr, ptr, %"union.hb_font_funcs_t::get_t" }
%"union.hb_font_funcs_t::get_t" = type { %"struct.hb_font_funcs_t::get_t::get_funcs_t" }
%"struct.hb_font_funcs_t::get_t::get_funcs_t" = type { ptr, ptr, ptr, ptr, ptr, ptr, ptr, ptr, ptr, ptr, ptr, ptr, ptr, ptr, ptr, ptr, ptr, ptr, ptr }
%struct.anon.16 = type { ptr, ptr, ptr, ptr, ptr, ptr, ptr, ptr, ptr, ptr, ptr, ptr, ptr, ptr, ptr, ptr, ptr, ptr, ptr }
%struct.hb_sparseset_t = type { %struct.hb_object_header_t, %struct.hb_bit_set_invertible_t }
%struct.hb_bit_set_invertible_t = type <{ %struct.hb_bit_set_t, i8, [7 x i8] }>
%struct.hb_bit_set_t = type { i8, i32, %struct.hb_atomic_int_t, %struct.hb_vector_t.27, %struct.hb_vector_t.28 }
%struct.hb_vector_t.27 = type { i32, i32, ptr }
%struct.hb_vector_t.28 = type { i32, i32, ptr }

@__const.hb_ot_shape_glyphs_closure.shapers = private unnamed_addr constant [2 x ptr] [ptr @.str, ptr null], align 16

; Function Attrs: mustprogress uwtable
define linkonce_odr hidden void @_ZNK18hb_ot_shape_plan_t15collect_lookupsEjP8hb_set_t(ptr noundef nonnull align 8 dereferenceable(170) %0, i32 noundef %1, ptr noundef %2) #0 comdat align 2 {
  %4 = alloca ptr, align 8
  %5 = alloca i32, align 4
  %6 = alloca ptr, align 8
  %7 = alloca i32, align 4
  store ptr %0, ptr %4, align 8
  store i32 %1, ptr %5, align 4
  store ptr %2, ptr %6, align 8
  %8 = load ptr, ptr %4, align 8
  %9 = load i32, ptr %5, align 4
  switch i32 %9, label %12 [
    i32 1196643650, label %10
    i32 1196445523, label %11
  ]

10:                                               ; preds = %3
  store i32 0, ptr %7, align 4
  br label %13

11:                                               ; preds = %3
  store i32 1, ptr %7, align 4
  br label %13

12:                                               ; preds = %3
  br label %17

13:                                               ; preds = %11, %10
  %14 = getelementptr inbounds %struct.hb_ot_shape_plan_t, ptr %8, i32 0, i32 2
  %15 = load i32, ptr %7, align 4
  %16 = load ptr, ptr %6, align 8
  call void @_ZNK11hb_ot_map_t15collect_lookupsEjP8hb_set_t(ptr noundef nonnull align 8 dereferenceable(96) %14, i32 noundef %15, ptr noundef %16)
  br label %17

17:                                               ; preds = %13, %12
  ret void
}

; Function Attrs: mustprogress uwtable
define linkonce_odr hidden noundef i32 @_ZN18hb_unicode_funcs_t9mirroringEj(ptr noundef nonnull align 8 dereferenceable(216) %0, i32 noundef %1) #0 comdat align 2 {
  %3 = alloca ptr, align 8
  %4 = alloca i32, align 4
  store ptr %0, ptr %3, align 8
  store i32 %1, ptr %4, align 4
  %5 = load ptr, ptr %3, align 8
  %6 = getelementptr inbounds %struct.hb_unicode_funcs_t, ptr %5, i32 0, i32 2
  %7 = getelementptr inbounds %struct.anon, ptr %6, i32 0, i32 3
  %8 = load ptr, ptr %7, align 8
  %9 = load i32, ptr %4, align 4
  %10 = getelementptr inbounds %struct.hb_unicode_funcs_t, ptr %5, i32 0, i32 3
  %11 = getelementptr inbounds %struct.anon.14, ptr %10, i32 0, i32 3
  %12 = load ptr, ptr %11, align 8
  %13 = call noundef i32 %8(ptr noundef %5, i32 noundef %9, ptr noundef %12)
  ret i32 %13
}

; Function Attrs: mustprogress uwtable
define linkonce_odr hidden void @_ZN14hb_sparseset_tI23hb_bit_set_invertible_tE3addEj(ptr noundef nonnull align 8 dereferenceable(72) %0, i32 noundef %1) #0 comdat align 2 {
  %3 = alloca ptr, align 8
  %4 = alloca i32, align 4
  store ptr %0, ptr %3, align 8
  store i32 %1, ptr %4, align 4
  %5 = load ptr, ptr %3, align 8
  %6 = getelementptr inbounds %struct.hb_sparseset_t, ptr %5, i32 0, i32 1
  %7 = load i32, ptr %4, align 4
  call void @_ZN23hb_bit_set_invertible_t3addEj(ptr noundef nonnull align 8 dereferenceable(49) %6, i32 noundef %7)
  ret void
}

; Function Attrs: mustprogress uwtable
define linkonce_odr hidden noundef i32 @_ZN9hb_font_t17get_nominal_glyphEjPjj(ptr noundef nonnull align 8 dereferenceable(192) %0, i32 noundef %1, ptr noundef %2, i32 noundef %3) #0 comdat align 2 {
  %5 = alloca ptr, align 8
  %6 = alloca i32, align 4
  %7 = alloca ptr, align 8
  %8 = alloca i32, align 4
  store ptr %0, ptr %5, align 8
  store i32 %1, ptr %6, align 4
  store ptr %2, ptr %7, align 8
  store i32 %3, ptr %8, align 4
  %9 = load ptr, ptr %5, align 8
  %10 = load i32, ptr %8, align 4
  %11 = load ptr, ptr %7, align 8
  store i32 %10, ptr %11, align 4
  %12 = getelementptr inbounds %struct.hb_font_t, ptr %9, i32 0, i32 25
  %13 = load ptr, ptr %12, align 8
  %14 = getelementptr inbounds %struct.hb_font_funcs_t, ptr %13, i32 0, i32 3
  %15 = getelementptr inbounds %"struct.hb_font_funcs_t::get_t::get_funcs_t", ptr %14, i32 0, i32 2
  %16 = load ptr, ptr %15, align 8
  %17 = getelementptr inbounds %struct.hb_font_t, ptr %9, i32 0, i32 26
  %18 = load ptr, ptr %17, align 8
  %19 = load i32, ptr %6, align 4
  %20 = load ptr, ptr %7, align 8
  %21 = getelementptr inbounds %struct.hb_font_t, ptr %9, i32 0, i32 25
  %22 = load ptr, ptr %21, align 8
  %23 = getelementptr inbounds %struct.hb_font_funcs_t, ptr %22, i32 0, i32 1
  %24 = load ptr, ptr %23, align 8
  %25 = icmp ne ptr %24, null
  br i1 %25, label %27, label %26

26:                                               ; preds = %4
  br label %34

27:                                               ; preds = %4
  %28 = getelementptr inbounds %struct.hb_font_t, ptr %9, i32 0, i32 25
  %29 = load ptr, ptr %28, align 8
  %30 = getelementptr inbounds %struct.hb_font_funcs_t, ptr %29, i32 0, i32 1
  %31 = load ptr, ptr %30, align 8
  %32 = getelementptr inbounds %struct.anon.16, ptr %31, i32 0, i32 2
  %33 = load ptr, ptr %32, align 8
  br label %34

34:                                               ; preds = %27, %26
  %35 = phi ptr [ null, %26 ], [ %33, %27 ]
  %36 = call noundef i32 %16(ptr noundef %9, ptr noundef %18, i32 noundef %19, ptr noundef %20, ptr noundef %35)
  ret i32 %36
}

; Function Attrs: mustprogress uwtable
define hidden void @hb_ot_shape_plan_collect_lookups(ptr noundef %0, i32 noundef %1, ptr noundef %2) #0 {
  %4 = alloca ptr, align 8
  %5 = alloca i32, align 4
  %6 = alloca ptr, align 8
  store ptr %0, ptr %4, align 8
  store i32 %1, ptr %5, align 4
  store ptr %2, ptr %6, align 8
  %7 = load ptr, ptr %4, align 8
  %8 = getelementptr inbounds %struct.hb_shape_plan_t, ptr %7, i32 0, i32 3
  %9 = load i32, ptr %5, align 4
  %10 = load ptr, ptr %6, align 8
  call void @_ZNK18hb_ot_shape_plan_t15collect_lookupsEjP8hb_set_t(ptr noundef nonnull align 8 dereferenceable(170) %8, i32 noundef %9, ptr noundef %10)
  ret void
}

; Function Attrs: mustprogress uwtable
define internal void @_ZL8add_charP9hb_font_tP18hb_unicode_funcs_tijP8hb_set_t(ptr noundef %0, ptr noundef %1, i32 noundef %2, i32 noundef %3, ptr noundef %4) #0 {
  %6 = alloca ptr, align 8
  %7 = alloca ptr, align 8
  %8 = alloca i32, align 4
  %9 = alloca i32, align 4
  %10 = alloca ptr, align 8
  %11 = alloca i32, align 4
  %12 = alloca i32, align 4
  store ptr %0, ptr %6, align 8
  store ptr %1, ptr %7, align 8
  store i32 %2, ptr %8, align 4
  store i32 %3, ptr %9, align 4
  store ptr %4, ptr %10, align 8
  %13 = load ptr, ptr %6, align 8
  %14 = load i32, ptr %9, align 4
  %15 = call noundef i32 @_ZN9hb_font_t17get_nominal_glyphEjPjj(ptr noundef nonnull align 8 dereferenceable(192) %13, i32 noundef %14, ptr noundef %11, i32 noundef 0)
  %16 = icmp ne i32 %15, 0
  br i1 %16, label %17, label %20

17:                                               ; preds = %5
  %18 = load ptr, ptr %10, align 8
  %19 = load i32, ptr %11, align 4
  call void @_ZN14hb_sparseset_tI23hb_bit_set_invertible_tE3addEj(ptr noundef nonnull align 8 dereferenceable(72) %18, i32 noundef %19)
  br label %20

20:                                               ; preds = %17, %5
  %21 = load i32, ptr %8, align 4
  %22 = icmp ne i32 %21, 0
  br i1 %22, label %23, label %39

23:                                               ; preds = %20
  %24 = load ptr, ptr %7, align 8
  %25 = load i32, ptr %9, align 4
  %26 = call noundef i32 @_ZN18hb_unicode_funcs_t9mirroringEj(ptr noundef nonnull align 8 dereferenceable(216) %24, i32 noundef %25)
  store i32 %26, ptr %12, align 4
  %27 = load i32, ptr %12, align 4
  %28 = load i32, ptr %9, align 4
  %29 = icmp ne i32 %27, %28
  br i1 %29, label %30, label %38

30:                                               ; preds = %23
  %31 = load ptr, ptr %6, align 8
  %32 = load i32, ptr %12, align 4
  %33 = call noundef i32 @_ZN9hb_font_t17get_nominal_glyphEjPjj(ptr noundef nonnull align 8 dereferenceable(192) %31, i32 noundef %32, ptr noundef %11, i32 noundef 0)
  %34 = icmp ne i32 %33, 0
  br i1 %34, label %35, label %38

35:                                               ; preds = %30
  %36 = load ptr, ptr %10, align 8
  %37 = load i32, ptr %11, align 4
  call void @_ZN14hb_sparseset_tI23hb_bit_set_invertible_tE3addEj(ptr noundef nonnull align 8 dereferenceable(72) %36, i32 noundef %37)
  br label %38

38:                                               ; preds = %35, %30, %23
  br label %39

39:                                               ; preds = %38, %20
  ret void
}

; Function Attrs: mustprogress uwtable
define hidden void @hb_ot_shape_glyphs_closure(ptr noundef %0, ptr noundef %1, ptr noundef %2, i32 noundef %3, ptr noundef %4) #0 {
  %6 = alloca ptr, align 8
  %7 = alloca ptr, align 8
  %8 = alloca ptr, align 8
  %9 = alloca i32, align 4
  %10 = alloca ptr, align 8
  %11 = alloca [2 x ptr], align 16
  %12 = alloca ptr, align 8
  %13 = alloca i8, align 1
  %14 = alloca i32, align 4
  %15 = alloca ptr, align 8
  %16 = alloca i32, align 4
  %17 = alloca ptr, align 8
  store ptr %0, ptr %6, align 8
  store ptr %1, ptr %7, align 8
  store ptr %2, ptr %8, align 8
  store i32 %3, ptr %9, align 4
  store ptr %4, ptr %10, align 8
  call void @llvm.memcpy.p0.p0.i64(ptr align 16 %11, ptr align 16 @__const.hb_ot_shape_glyphs_closure.shapers, i64 16, i1 false)
  %18 = load ptr, ptr %6, align 8
  %19 = getelementptr inbounds %struct.hb_font_t, ptr %18, i32 0, i32 4
  %20 = load ptr, ptr %19, align 8
  %21 = load ptr, ptr %7, align 8
  %22 = getelementptr inbounds %struct.hb_buffer_t, ptr %21, i32 0, i32 8
  %23 = load ptr, ptr %8, align 8
  %24 = load i32, ptr %9, align 4
  %25 = getelementptr inbounds [2 x ptr], ptr %11, i64 0, i64 0
  %26 = call ptr @hb_shape_plan_create_cached(ptr noundef %20, ptr noundef %22, ptr noundef %23, i32 noundef %24, ptr noundef %25)
  store ptr %26, ptr %12, align 8
  %27 = load ptr, ptr %7, align 8
  %28 = getelementptr inbounds %struct.hb_buffer_t, ptr %27, i32 0, i32 8
  %29 = getelementptr inbounds %struct.hb_segment_properties_t, ptr %28, i32 0, i32 1
  %30 = load i32, ptr %29, align 4
  %31 = call i32 @hb_script_get_horizontal_direction(i32 noundef %30)
  %32 = icmp eq i32 %31, 5
  %33 = zext i1 %32 to i8
  store i8 %33, ptr %13, align 1
  %34 = load ptr, ptr %7, align 8
  %35 = getelementptr inbounds %struct.hb_buffer_t, ptr %34, i32 0, i32 14
  %36 = load i32, ptr %35, align 8
  store i32 %36, ptr %14, align 4
  %37 = load ptr, ptr %7, align 8
  %38 = getelementptr inbounds %struct.hb_buffer_t, ptr %37, i32 0, i32 18
  %39 = load ptr, ptr %38, align 8
  store ptr %39, ptr %15, align 8
  store i32 0, ptr %16, align 4
  br label %40

40:                                               ; preds = %59, %5
  %41 = load i32, ptr %16, align 4
  %42 = load i32, ptr %14, align 4
  %43 = icmp ult i32 %41, %42
  br i1 %43, label %44, label %62

44:                                               ; preds = %40
  %45 = load ptr, ptr %6, align 8
  %46 = load ptr, ptr %7, align 8
  %47 = getelementptr inbounds %struct.hb_buffer_t, ptr %46, i32 0, i32 1
  %48 = load ptr, ptr %47, align 8
  %49 = load i8, ptr %13, align 1
  %50 = trunc i8 %49 to i1
  %51 = zext i1 %50 to i32
  %52 = load ptr, ptr %15, align 8
  %53 = load i32, ptr %16, align 4
  %54 = zext i32 %53 to i64
  %55 = getelementptr inbounds %struct.hb_glyph_info_t, ptr %52, i64 %54
  %56 = getelementptr inbounds %struct.hb_glyph_info_t, ptr %55, i32 0, i32 0
  %57 = load i32, ptr %56, align 4
  %58 = load ptr, ptr %10, align 8
  call void @_ZL8add_charP9hb_font_tP18hb_unicode_funcs_tijP8hb_set_t(ptr noundef %45, ptr noundef %48, i32 noundef %51, i32 noundef %57, ptr noundef %58)
  br label %59

59:                                               ; preds = %44
  %60 = load i32, ptr %16, align 4
  %61 = add i32 %60, 1
  store i32 %61, ptr %16, align 4
  br label %40, !llvm.loop !12

62:                                               ; preds = %40
  %63 = call ptr @hb_set_create()
  store ptr %63, ptr %17, align 8
  %64 = load ptr, ptr %12, align 8
  %65 = load ptr, ptr %17, align 8
  call void @hb_ot_shape_plan_collect_lookups(ptr noundef %64, i32 noundef 1196643650, ptr noundef %65)
  %66 = load ptr, ptr %6, align 8
  %67 = getelementptr inbounds %struct.hb_font_t, ptr %66, i32 0, i32 4
  %68 = load ptr, ptr %67, align 8
  %69 = load ptr, ptr %17, align 8
  %70 = load ptr, ptr %10, align 8
  call void @hb_ot_layout_lookups_substitute_closure(ptr noundef %68, ptr noundef %69, ptr noundef %70)
  %71 = load ptr, ptr %17, align 8
  call void @hb_set_destroy(ptr noundef %71)
  %72 = load ptr, ptr %12, align 8
  call void @hb_shape_plan_destroy(ptr noundef %72)
  ret void
}