; Function Attrs: mustprogress uwtable
define hidden void @hb_ot_shape_glyphs_closure(ptr noundef %0, ptr noundef %1, ptr noundef %2, i32 noundef %3, ptr noundef %4) local_unnamed_addr #0 {
  %6 = alloca i32, align 4
  %7 = alloca [2 x ptr], align 16
  call void @llvm.memcpy.p0.p0.i64(ptr noundef nonnull align 16 dereferenceable(16) %7, ptr noundef nonnull align 16 dereferenceable(16) @__const.hb_ot_shape_glyphs_closure.shapers, i64 16, i1 false)
  %8 = getelementptr inbounds i8, ptr %0, i64 32
  %9 = load ptr, ptr %8, align 8
  %10 = getelementptr inbounds i8, ptr %1, i64 48
  %11 = call ptr @hb_shape_plan_create_cached(ptr noundef %9, ptr noundef nonnull %10, ptr noundef %2, i32 noundef %3, ptr noundef nonnull %7)
  %12 = getelementptr inbounds i8, ptr %1, i64 52
  %13 = load i32, ptr %12, align 4
  %14 = call i32 @hb_script_get_horizontal_direction(i32 noundef %13)
  %15 = getelementptr inbounds i8, ptr %1, i64 88
  %16 = load i32, ptr %15, align 8
  %17 = getelementptr inbounds i8, ptr %1, i64 104
  %18 = load ptr, ptr %17, align 8
  %.not23 = icmp eq i32 %16, 0
  br i1 %.not23, label %._crit_edge, label %.lr.ph

.lr.ph:                                           ; preds = %5
  %.fr = freeze i32 %14
  %.not = icmp eq i32 %.fr, 5
  %19 = getelementptr inbounds i8, ptr %1, i64 16
  %20 = getelementptr inbounds i8, ptr %0, i64 144
  %21 = getelementptr inbounds i8, ptr %0, i64 152
  %22 = getelementptr inbounds i8, ptr %4, i64 16
  %wide.trip.count29 = zext i32 %16 to i64
  br i1 %.not, label %.lr.ph.split.us, label %.lr.ph.split

.lr.ph.split.us:                                  ; preds = %.lr.ph, %_ZL8add_charP9hb_font_tP18hb_unicode_funcs_tijP8hb_set_t.exit.us
  %indvars.iv26 = phi i64 [ %indvars.iv.next27, %_ZL8add_charP9hb_font_tP18hb_unicode_funcs_tijP8hb_set_t.exit.us ], [ 0, %.lr.ph ]
  %23 = load ptr, ptr %19, align 8
  %24 = getelementptr inbounds %struct.hb_glyph_info_t, ptr %18, i64 %indvars.iv26
  %25 = load i32, ptr %24, align 4
  call void @llvm.lifetime.start.p0(i64 4, ptr nonnull %6)
  store i32 0, ptr %6, align 4
  %26 = load ptr, ptr %20, align 8
  %27 = getelementptr inbounds i8, ptr %26, i64 48
  %28 = load ptr, ptr %27, align 8
  %29 = load ptr, ptr %21, align 8
  %30 = getelementptr inbounds i8, ptr %26, i64 16
  %31 = load ptr, ptr %30, align 8
  %.not.i.i.us = icmp eq ptr %31, null
  br i1 %.not.i.i.us, label %_ZN9hb_font_t17get_nominal_glyphEjPjj.exit.i.us, label %32

32:                                               ; preds = %.lr.ph.split.us
  %33 = getelementptr inbounds i8, ptr %31, i64 16
  %34 = load ptr, ptr %33, align 8
  br label %_ZN9hb_font_t17get_nominal_glyphEjPjj.exit.i.us

_ZN9hb_font_t17get_nominal_glyphEjPjj.exit.i.us:  ; preds = %32, %.lr.ph.split.us
  %35 = phi ptr [ %34, %32 ], [ null, %.lr.ph.split.us ]
  %36 = call noundef i32 %28(ptr noundef nonnull %0, ptr noundef %29, i32 noundef %25, ptr noundef nonnull %6, ptr noundef %35)
  %.not.i.us = icmp eq i32 %36, 0
  br i1 %.not.i.us, label %39, label %37

37:                                               ; preds = %_ZN9hb_font_t17get_nominal_glyphEjPjj.exit.i.us
  %38 = load i32, ptr %6, align 4
  call void @_ZN23hb_bit_set_invertible_t3addEj(ptr noundef nonnull align 8 dereferenceable(49) %22, i32 noundef %38)
  br label %39

39:                                               ; preds = %37, %_ZN9hb_font_t17get_nominal_glyphEjPjj.exit.i.us
  %40 = getelementptr inbounds i8, ptr %23, i64 48
  %41 = load ptr, ptr %40, align 8
  %42 = getelementptr inbounds i8, ptr %23, i64 112
  %43 = load ptr, ptr %42, align 8
  %44 = call noundef i32 %41(ptr noundef nonnull %23, i32 noundef %25, ptr noundef %43)
  %.not11.i.us = icmp eq i32 %44, %25
  br i1 %.not11.i.us, label %_ZL8add_charP9hb_font_tP18hb_unicode_funcs_tijP8hb_set_t.exit.us, label %45

45:                                               ; preds = %39
  store i32 0, ptr %6, align 4
  %46 = load ptr, ptr %20, align 8
  %47 = getelementptr inbounds i8, ptr %46, i64 48
  %48 = load ptr, ptr %47, align 8
  %49 = load ptr, ptr %21, align 8
  %50 = getelementptr inbounds i8, ptr %46, i64 16
  %51 = load ptr, ptr %50, align 8
  %.not.i13.i.us = icmp eq ptr %51, null
  br i1 %.not.i13.i.us, label %_ZN9hb_font_t17get_nominal_glyphEjPjj.exit14.i.us, label %52

52:                                               ; preds = %45
  %53 = getelementptr inbounds i8, ptr %51, i64 16
  %54 = load ptr, ptr %53, align 8
  br label %_ZN9hb_font_t17get_nominal_glyphEjPjj.exit14.i.us

_ZN9hb_font_t17get_nominal_glyphEjPjj.exit14.i.us: ; preds = %52, %45
  %55 = phi ptr [ %54, %52 ], [ null, %45 ]
  %56 = call noundef i32 %48(ptr noundef nonnull %0, ptr noundef %49, i32 noundef %44, ptr noundef nonnull %6, ptr noundef %55)
  %.not12.i.us = icmp eq i32 %56, 0
  br i1 %.not12.i.us, label %_ZL8add_charP9hb_font_tP18hb_unicode_funcs_tijP8hb_set_t.exit.us, label %57

57:                                               ; preds = %_ZN9hb_font_t17get_nominal_glyphEjPjj.exit14.i.us
  %58 = load i32, ptr %6, align 4
  call void @_ZN23hb_bit_set_invertible_t3addEj(ptr noundef nonnull align 8 dereferenceable(49) %22, i32 noundef %58)
  br label %_ZL8add_charP9hb_font_tP18hb_unicode_funcs_tijP8hb_set_t.exit.us

_ZL8add_charP9hb_font_tP18hb_unicode_funcs_tijP8hb_set_t.exit.us: ; preds = %57, %_ZN9hb_font_t17get_nominal_glyphEjPjj.exit14.i.us, %39
  call void @llvm.lifetime.end.p0(i64 4, ptr nonnull %6)
  %indvars.iv.next27 = add nuw nsw i64 %indvars.iv26, 1
  %exitcond30.not = icmp eq i64 %indvars.iv.next27, %wide.trip.count29
  br i1 %exitcond30.not, label %._crit_edge, label %.lr.ph.split.us, !llvm.loop !39

.lr.ph.split:                                     ; preds = %.lr.ph, %_ZL8add_charP9hb_font_tP18hb_unicode_funcs_tijP8hb_set_t.exit
  %indvars.iv = phi i64 [ %indvars.iv.next, %_ZL8add_charP9hb_font_tP18hb_unicode_funcs_tijP8hb_set_t.exit ], [ 0, %.lr.ph ]
  %59 = getelementptr inbounds %struct.hb_glyph_info_t, ptr %18, i64 %indvars.iv
  %60 = load i32, ptr %59, align 4
  call void @llvm.lifetime.start.p0(i64 4, ptr nonnull %6)
  store i32 0, ptr %6, align 4
  %61 = load ptr, ptr %20, align 8
  %62 = getelementptr inbounds i8, ptr %61, i64 48
  %63 = load ptr, ptr %62, align 8
  %64 = load ptr, ptr %21, align 8
  %65 = getelementptr inbounds i8, ptr %61, i64 16
  %66 = load ptr, ptr %65, align 8
  %.not.i.i = icmp eq ptr %66, null
  br i1 %.not.i.i, label %_ZN9hb_font_t17get_nominal_glyphEjPjj.exit.i, label %67

67:                                               ; preds = %.lr.ph.split
  %68 = getelementptr inbounds i8, ptr %66, i64 16
  %69 = load ptr, ptr %68, align 8
  br label %_ZN9hb_font_t17get_nominal_glyphEjPjj.exit.i

_ZN9hb_font_t17get_nominal_glyphEjPjj.exit.i:     ; preds = %67, %.lr.ph.split
  %70 = phi ptr [ %69, %67 ], [ null, %.lr.ph.split ]
  %71 = call noundef i32 %63(ptr noundef nonnull %0, ptr noundef %64, i32 noundef %60, ptr noundef nonnull %6, ptr noundef %70)
  %.not.i = icmp eq i32 %71, 0
  br i1 %.not.i, label %_ZL8add_charP9hb_font_tP18hb_unicode_funcs_tijP8hb_set_t.exit, label %72

72:                                               ; preds = %_ZN9hb_font_t17get_nominal_glyphEjPjj.exit.i
  %73 = load i32, ptr %6, align 4
  call void @_ZN23hb_bit_set_invertible_t3addEj(ptr noundef nonnull align 8 dereferenceable(49) %22, i32 noundef %73)
  br label %_ZL8add_charP9hb_font_tP18hb_unicode_funcs_tijP8hb_set_t.exit

_ZL8add_charP9hb_font_tP18hb_unicode_funcs_tijP8hb_set_t.exit: ; preds = %72, %_ZN9hb_font_t17get_nominal_glyphEjPjj.exit.i
  call void @llvm.lifetime.end.p0(i64 4, ptr nonnull %6)
  %indvars.iv.next = add nuw nsw i64 %indvars.iv, 1
  %exitcond.not = icmp eq i64 %indvars.iv.next, %wide.trip.count29
  br i1 %exitcond.not, label %._crit_edge, label %.lr.ph.split, !llvm.loop !39

._crit_edge:                                      ; preds = %_ZL8add_charP9hb_font_tP18hb_unicode_funcs_tijP8hb_set_t.exit, %_ZL8add_charP9hb_font_tP18hb_unicode_funcs_tijP8hb_set_t.exit.us, %5
  %74 = call ptr @hb_set_create()
  %75 = getelementptr inbounds i8, ptr %11, i64 136
  call void @_ZNK11hb_ot_map_t15collect_lookupsEjP8hb_set_t(ptr noundef nonnull align 8 dereferenceable(96) %75, i32 noundef 0, ptr noundef %74)
  %76 = load ptr, ptr %8, align 8
  call void @hb_ot_layout_lookups_substitute_closure(ptr noundef %76, ptr noundef %74, ptr noundef %4)
  call void @hb_set_destroy(ptr noundef %74)
  call void @hb_shape_plan_destroy(ptr noundef %11)
  ret void
}